target datalayout = "e-m:e-p270:32:32-p271:32:32-p272:64:64-i64:64-i128:128-f80:128-n8:16:32:64-S128"
target triple = "x86_64-pc-linux-gnu"

%struct.options_st = type { ptr, i32, i32, ptr }

@test_get_options.default_options = internal constant [9 x %struct.options_st] [%struct.options_st { ptr @OPT_HELP_STR, i32 1, i32 45, ptr @.str }, %struct.options_st { ptr @OPT_HELP_STR, i32 1, i32 45, ptr @.str.1 }, %struct.options_st { ptr @.str.2, i32 500, i32 45, ptr @.str.3 }, %struct.options_st { ptr @.str.4, i32 501, i32 45, ptr @.str.5 }, %struct.options_st { ptr @.str.6, i32 502, i32 115, ptr @.str.7 }, %struct.options_st { ptr @.str.8, i32 503, i32 110, ptr @.str.9 }, %struct.options_st { ptr @.str.10, i32 504, i32 112, ptr @.str.11 }, %struct.options_st { ptr @.str.12, i32 505, i32 110, ptr @.str.13 }, %struct.options_st zeroinitializer], align 16
@OPT_HELP_STR = external constant [0 x i8], align 1
@.str = private unnamed_addr constant [21 x i8] c"Usage: %s [options]\0A\00", align 1
@.str.1 = private unnamed_addr constant [20 x i8] c"Valid options are:\0A\00", align 1
@.str.2 = private unnamed_addr constant [5 x i8] c"help\00", align 1
@.str.3 = private unnamed_addr constant [21 x i8] c"Display this summary\00", align 1
@.str.4 = private unnamed_addr constant [5 x i8] c"list\00", align 1
@.str.5 = private unnamed_addr constant [36 x i8] c"Display the list of tests available\00", align 1
@.str.6 = private unnamed_addr constant [5 x i8] c"test\00", align 1
@.str.7 = private unnamed_addr constant [32 x i8] c"Run a single test by id or name\00", align 1
@.str.8 = private unnamed_addr constant [5 x i8] c"iter\00", align 1
@.str.9 = private unnamed_addr constant [33 x i8] c"Run a single iteration of a test\00", align 1
@.str.10 = private unnamed_addr constant [7 x i8] c"indent\00", align 1
@.str.11 = private unnamed_addr constant [31 x i8] c"Number of tabs added to output\00", align 1
@.str.12 = private unnamed_addr constant [5 x i8] c"seed\00", align 1
@.str.13 = private unnamed_addr constant [35 x i8] c"Seed value to randomize tests with\00", align 1

; Function Attrs: nounwind uwtable
define ptr @test_get_options() #0 {
  ret ptr @test_get_options.default_options
}


!llvm.module.flags = !{!0, !1, !2}

!0 = !{i32 1, !"wchar_size", i32 4}
!1 = !{i32 8, !"PIC Level", i32 2}
!2 = !{i32 7, !"uwtable", i32 2}
